target datalayout = "e-m:e-p270:32:32-p271:32:32-p272:64:64-i64:64-i128:128-f80:128-n8:16:32:64-S128"
target triple = "x86_64-unknown-linux-gnu"

%"class.icu_75::SharedObject" = type { %"class.icu_75::UObject", i32, %"struct.std::atomic", ptr }
%"class.icu_75::UObject" = type { ptr }
%"struct.std::atomic" = type { %"struct.std::__atomic_base" }
%"struct.std::__atomic_base" = type { i32 }
%"class.icu_75::MeasureFormat" = type { %"class.icu_75::Format.base", ptr, ptr, ptr, i32, ptr }
%"class.icu_75::Format.base" = type <{ %"class.icu_75::UObject", [157 x i8], [157 x i8] }>
%"class.icu_75::SharedNumberFormat" = type { %"class.icu_75::SharedObject", ptr }

@_ZTIN6icu_757UObjectE = external constant ptr
@_ZTIN6icu_757MeasureE = external constant ptr

; Function Attrs: mustprogress nounwind uwtable
define linkonce_odr noundef nonnull align 8 dereferenceable(356) ptr @_ZNK6icu_7518SharedNumberFormatdeEv(ptr noundef nonnull align 8 dereferenceable(32) %this) #0 comdat align 2 {
entry:
  %this.addr = alloca ptr, align 8
  store ptr %this, ptr %this.addr, align 8
  %this1 = load ptr, ptr %this.addr, align 8
  %ptr = getelementptr inbounds %"class.icu_75::SharedNumberFormat", ptr %this1, i32 0, i32 1
  %0 = load ptr, ptr %ptr, align 8
  ret ptr %0
}

; Function Attrs: mustprogress nounwind uwtable
define internal noundef signext i8 @_ZL9U_FAILURE10UErrorCode(i32 noundef %code) #0 {
entry:
  %code.addr = alloca i32, align 4
  store i32 %code, ptr %code.addr, align 4
  %0 = load i32, ptr %code.addr, align 4
  %cmp = icmp sgt i32 %0, 0
  %conv = zext i1 %cmp to i8
  ret i8 %conv
}

; Function Attrs: mustprogress uwtable
define noundef nonnull align 8 dereferenceable(64) ptr @_ZNK6icu_7513MeasureFormat6formatERKNS_11FormattableERNS_13UnicodeStringERNS_13FieldPositionER10UErrorCode(ptr noundef nonnull align 8 dereferenceable(368) %this, ptr noundef nonnull align 8 dereferenceable(112) %obj, ptr noundef nonnull align 8 dereferenceable(64) %appendTo, ptr noundef nonnull align 8 dereferenceable(20) %pos, ptr noundef nonnull align 4 dereferenceable(4) %status) unnamed_addr #1 align 2 {
entry:
  %retval = alloca ptr, align 8
  %this.addr = alloca ptr, align 8
  %obj.addr = alloca ptr, align 8
  %appendTo.addr = alloca ptr, align 8
  %pos.addr = alloca ptr, align 8
  %status.addr = alloca ptr, align 8
  %formatObj = alloca ptr, align 8
  %amount = alloca ptr, align 8
  store ptr %this, ptr %this.addr, align 8
  store ptr %obj, ptr %obj.addr, align 8
  store ptr %appendTo, ptr %appendTo.addr, align 8
  store ptr %pos, ptr %pos.addr, align 8
  store ptr %status, ptr %status.addr, align 8
  %this1 = load ptr, ptr %this.addr, align 8
  %0 = load ptr, ptr %status.addr, align 8
  %1 = load i32, ptr %0, align 4
  %call = call noundef signext i8 @_ZL9U_FAILURE10UErrorCode(i32 noundef %1)
  %tobool = icmp ne i8 %call, 0
  br i1 %tobool, label %if.then, label %if.end

if.then:                                          ; preds = %entry
  %2 = load ptr, ptr %appendTo.addr, align 8
  store ptr %2, ptr %retval, align 8
  br label %return

if.end:                                           ; preds = %entry
  %3 = load ptr, ptr %obj.addr, align 8
  %call2 = call noundef i32 @_ZNK6icu_7511Formattable7getTypeEv(ptr noundef nonnull align 8 dereferenceable(112) %3)
  %cmp = icmp eq i32 %call2, 6
  br i1 %cmp, label %if.then3, label %if.end10

if.then3:                                         ; preds = %if.end
  %4 = load ptr, ptr %obj.addr, align 8
  %call4 = call noundef ptr @_ZNK6icu_7511Formattable9getObjectEv(ptr noundef nonnull align 8 dereferenceable(112) %4)
  store ptr %call4, ptr %formatObj, align 8
  %5 = load ptr, ptr %formatObj, align 8
  %6 = icmp eq ptr %5, null
  br i1 %6, label %dynamic_cast.null, label %dynamic_cast.notnull

dynamic_cast.notnull:                             ; preds = %if.then3
  %7 = call ptr @__dynamic_cast(ptr %5, ptr @_ZTIN6icu_757UObjectE, ptr @_ZTIN6icu_757MeasureE, i64 0) #12
  br label %dynamic_cast.end

dynamic_cast.null:                                ; preds = %if.then3
  br label %dynamic_cast.end

dynamic_cast.end:                                 ; preds = %dynamic_cast.null, %dynamic_cast.notnull
  %8 = phi ptr [ %7, %dynamic_cast.notnull ], [ null, %dynamic_cast.null ]
  store ptr %8, ptr %amount, align 8
  %9 = load ptr, ptr %amount, align 8
  %cmp5 = icmp ne ptr %9, null
  br i1 %cmp5, label %if.then6, label %if.end9

if.then6:                                         ; preds = %dynamic_cast.end
  %10 = load ptr, ptr %amount, align 8
  %numberFormat = getelementptr inbounds %"class.icu_75::MeasureFormat", ptr %this1, i32 0, i32 2
  %11 = load ptr, ptr %numberFormat, align 8
  %call7 = call noundef nonnull align 8 dereferenceable(356) ptr @_ZNK6icu_7518SharedNumberFormatdeEv(ptr noundef nonnull align 8 dereferenceable(32) %11)
  %12 = load ptr, ptr %appendTo.addr, align 8
  %13 = load ptr, ptr %pos.addr, align 8
  %14 = load ptr, ptr %status.addr, align 8
  %call8 = call noundef nonnull align 8 dereferenceable(64) ptr @_ZNK6icu_7513MeasureFormat13formatMeasureERKNS_7MeasureERKNS_12NumberFormatERNS_13UnicodeStringERNS_13FieldPositionER10UErrorCode(ptr noundef nonnull align 8 dereferenceable(368) %this1, ptr noundef nonnull align 8 dereferenceable(128) %10, ptr noundef nonnull align 8 dereferenceable(356) %call7, ptr noundef nonnull align 8 dereferenceable(64) %12, ptr noundef nonnull align 8 dereferenceable(20) %13, ptr noundef nonnull align 4 dereferenceable(4) %14)
  store ptr %call8, ptr %retval, align 8
  br label %return

if.end9:                                          ; preds = %dynamic_cast.end
  br label %if.end10

if.end10:                                         ; preds = %if.end9, %if.end
  %15 = load ptr, ptr %status.addr, align 8
  store i32 1, ptr %15, align 4
  %16 = load ptr, ptr %appendTo.addr, align 8
  store ptr %16, ptr %retval, align 8
  br label %return

return:                                           ; preds = %if.end10, %if.then6, %if.then
  %17 = load ptr, ptr %retval, align 8
  ret ptr %17
}