; Function Attrs: mustprogress uwtable
define noundef nonnull align 8 dereferenceable(64) ptr @_ZNK6icu_7513MeasureFormat6formatERKNS_11FormattableERNS_13UnicodeStringERNS_13FieldPositionER10UErrorCode(ptr noundef nonnull align 8 dereferenceable(368) %this, ptr noundef nonnull align 8 dereferenceable(112) %obj, ptr noundef nonnull align 8 dereferenceable(64) %appendTo, ptr noundef nonnull align 8 dereferenceable(20) %pos, ptr noundef nonnull align 4 dereferenceable(4) %status) unnamed_addr #1 align 2 {
entry:
  %0 = load i32, ptr %status, align 4
  %cmp.i = icmp slt i32 %0, 1
  br i1 %cmp.i, label %if.end, label %return

if.end:                                           ; preds = %entry
  %call2 = tail call noundef i32 @_ZNK6icu_7511Formattable7getTypeEv(ptr noundef nonnull align 8 dereferenceable(112) %obj)
  %cmp = icmp eq i32 %call2, 6
  br i1 %cmp, label %if.then3, label %if.end10

if.then3:                                         ; preds = %if.end
  %call4 = tail call noundef ptr @_ZNK6icu_7511Formattable9getObjectEv(ptr noundef nonnull align 8 dereferenceable(112) %obj)
  %1 = icmp eq ptr %call4, null
  br i1 %1, label %if.end10, label %dynamic_cast.end

dynamic_cast.end:                                 ; preds = %if.then3
  %2 = tail call ptr @__dynamic_cast(ptr nonnull %call4, ptr nonnull @_ZTIN6icu_757UObjectE, ptr nonnull @_ZTIN6icu_757MeasureE, i64 0) #16
  %cmp5.not = icmp eq ptr %2, null
  br i1 %cmp5.not, label %if.end10, label %if.then6

if.then6:                                         ; preds = %dynamic_cast.end
  %numberFormat = getelementptr inbounds i8, ptr %this, i64 336
  %3 = load ptr, ptr %numberFormat, align 8
  %ptr.i = getelementptr inbounds i8, ptr %3, i64 24
  %4 = load ptr, ptr %ptr.i, align 8
  %call8 = tail call noundef nonnull align 8 dereferenceable(64) ptr @_ZNK6icu_7513MeasureFormat13formatMeasureERKNS_7MeasureERKNS_12NumberFormatERNS_13UnicodeStringERNS_13FieldPositionER10UErrorCode(ptr noundef nonnull align 8 dereferenceable(368) %this, ptr noundef nonnull align 8 dereferenceable(128) %2, ptr noundef nonnull align 8 dereferenceable(356) %4, ptr noundef nonnull align 8 dereferenceable(64) %appendTo, ptr noundef nonnull align 8 dereferenceable(20) %pos, ptr noundef nonnull align 4 dereferenceable(4) %status)
  br label %return

if.end10:                                         ; preds = %if.then3, %dynamic_cast.end, %if.end
  store i32 1, ptr %status, align 4
  br label %return

return:                                           ; preds = %entry, %if.end10, %if.then6
  %retval.0 = phi ptr [ %call8, %if.then6 ], [ %appendTo, %if.end10 ], [ %appendTo, %entry ]
  ret ptr %retval.0
}